target datalayout = "e-m:e-p270:32:32-p271:32:32-p272:64:64-i64:64-i128:128-f80:128-n8:16:32:64-S128"
target triple = "x86_64-pc-linux-gnu"

%struct.vtx_data = type { i64, ptr, ptr, ptr, ptr }

; Function Attrs: nounwind uwtable
define void @fill_neighbors_vec_unweighted(ptr noundef %0, i32 noundef %1, ptr noundef %2) #0 {
  %4 = alloca ptr, align 8
  %5 = alloca i32, align 4
  %6 = alloca ptr, align 8
  %7 = alloca i64, align 8
  store ptr %0, ptr %4, align 8, !tbaa !3
  store i32 %1, ptr %5, align 4, !tbaa !7
  store ptr %2, ptr %6, align 8, !tbaa !9
  call void @llvm.lifetime.start.p0(i64 8, ptr %7) #9
  store i64 1, ptr %7, align 8, !tbaa !11
  br label %8

8:                                                ; preds = %31, %3
  %9 = load i64, ptr %7, align 8, !tbaa !11
  %10 = load ptr, ptr %4, align 8, !tbaa !3
  %11 = load i32, ptr %5, align 4, !tbaa !7
  %12 = sext i32 %11 to i64
  %13 = getelementptr inbounds %struct.vtx_data, ptr %10, i64 %12
  %14 = getelementptr inbounds nuw %struct.vtx_data, ptr %13, i32 0, i32 0
  %15 = load i64, ptr %14, align 8, !tbaa !13
  %16 = icmp ult i64 %9, %15
  br i1 %16, label %18, label %17

17:                                               ; preds = %8
  call void @llvm.lifetime.end.p0(i64 8, ptr %7) #9
  br label %34

18:                                               ; preds = %8
  %19 = load ptr, ptr %6, align 8, !tbaa !9
  %20 = load ptr, ptr %4, align 8, !tbaa !3
  %21 = load i32, ptr %5, align 4, !tbaa !7
  %22 = sext i32 %21 to i64
  %23 = getelementptr inbounds %struct.vtx_data, ptr %20, i64 %22
  %24 = getelementptr inbounds nuw %struct.vtx_data, ptr %23, i32 0, i32 1
  %25 = load ptr, ptr %24, align 8, !tbaa !16
  %26 = load i64, ptr %7, align 8, !tbaa !11
  %27 = getelementptr inbounds nuw i32, ptr %25, i64 %26
  %28 = load i32, ptr %27, align 4, !tbaa !7
  %29 = sext i32 %28 to i64
  %30 = getelementptr inbounds i32, ptr %19, i64 %29
  store i32 1, ptr %30, align 4, !tbaa !7
  br label %31

31:                                               ; preds = %18
  %32 = load i64, ptr %7, align 8, !tbaa !11
  %33 = add i64 %32, 1
  store i64 %33, ptr %7, align 8, !tbaa !11
  br label %8, !llvm.loop !19

34:                                               ; preds = %17
  ret void
}